target datalayout = "e-m:e-p270:32:32-p271:32:32-p272:64:64-i64:64-i128:128-f80:128-n8:16:32:64-S128"
target triple = "x86_64-pc-linux-gnu"

%"class.sls::context" = type <{ ptr, ptr, %class.scoped_ptr_vector, %class.indexed_uint_set, %class.indexed_uint_set, %class.ref_vector, %class.svector, %class.params_ref, %class.vector.3, %class.svector.4, %class.svector.4, %class.indexed_uint_set, %class.random_gen, i8, i8, i8, i8, %class.ref_vector, %class.ref_vector, %class.ptr_vector.1, %"struct.sls::context::greater_depth", %"struct.sls::context::less_depth", %class.heap, %class.heap.8, %class.uint_set, %class.ref_vector, %"struct.sls::context::stats", [4 x i8], %class.ref_vector, i8, [7 x i8] }>
%class.scoped_ptr_vector = type { %class.ptr_vector }
%class.ptr_vector = type { %class.vector }
%class.vector = type { ptr }
%class.svector = type { %class.vector.0 }
%class.vector.0 = type { ptr }
%class.params_ref = type { ptr }
%class.vector.3 = type { ptr }
%class.svector.4 = type { %class.vector.5 }
%class.vector.5 = type { ptr }
%class.indexed_uint_set = type { i32, %class.svector, %class.svector }
%class.random_gen = type { i32 }
%class.ptr_vector.1 = type { %class.vector.2 }
%class.vector.2 = type { ptr }
%"struct.sls::context::greater_depth" = type { ptr }
%"struct.sls::context::less_depth" = type { ptr }
%class.heap = type { %"struct.sls::context::greater_depth", %class.svector.6, %class.svector.6 }
%class.svector.6 = type { %class.vector.7 }
%class.vector.7 = type { ptr }
%class.heap.8 = type { %"struct.sls::context::less_depth", %class.svector.6, %class.svector.6 }
%class.uint_set = type { %class.svector }
%"struct.sls::context::stats" = type { i32, i32, i32 }
%class.ref_vector = type { %class.ref_vector_core }
%class.ref_vector_core = type { %class.ref_manager_wrapper, %class.ptr_vector.1 }
%class.ref_manager_wrapper = type { ptr }

; Function Attrs: mustprogress nounwind uwtable
define linkonce_odr hidden noundef i32 @_ZNK6vectorIP4exprLb0EjE4sizeEv(ptr noundef nonnull align 8 dereferenceable(8) %0) #5 comdat align 2 {
  %2 = alloca i32, align 4
  %3 = alloca ptr, align 8
  store ptr %0, ptr %3, align 8, !tbaa !95
  %4 = load ptr, ptr %3, align 8
  %5 = getelementptr inbounds nuw %class.vector.2, ptr %4, i32 0, i32 0
  %6 = load ptr, ptr %5, align 8, !tbaa !195
  %7 = icmp eq ptr %6, null
  br i1 %7, label %8, label %9

8:                                                ; preds = %1
  store i32 0, ptr %2, align 4
  br label %14

9:                                                ; preds = %1
  %10 = getelementptr inbounds nuw %class.vector.2, ptr %4, i32 0, i32 0
  %11 = load ptr, ptr %10, align 8, !tbaa !195
  %12 = getelementptr inbounds i32, ptr %11, i64 -1
  %13 = load i32, ptr %12, align 4, !tbaa !74
  store i32 %13, ptr %2, align 4
  br label %14

14:                                               ; preds = %9, %8
  %15 = load i32, ptr %2, align 4
  ret i32 %15
}

; Function Attrs: mustprogress nounwind uwtable
define linkonce_odr hidden noundef nonnull align 8 dereferenceable(8) ptr @_ZNK6vectorIPN3sls6pluginELb0EjEixEj(ptr noundef nonnull align 8 dereferenceable(8) %0, i32 noundef %1) #5 comdat align 2 {
  %3 = alloca ptr, align 8
  %4 = alloca i32, align 4
  store ptr %0, ptr %3, align 8, !tbaa !322
  store i32 %1, ptr %4, align 4, !tbaa !74
  %5 = load ptr, ptr %3, align 8
  %6 = getelementptr inbounds nuw %class.vector, ptr %5, i32 0, i32 0
  %7 = load ptr, ptr %6, align 8, !tbaa !324
  %8 = load i32, ptr %4, align 4, !tbaa !74
  %9 = zext i32 %8 to i64
  %10 = getelementptr inbounds nuw ptr, ptr %7, i64 %9
  ret ptr %10
}

; Function Attrs: mustprogress nounwind uwtable
define linkonce_odr hidden noundef nonnull align 8 dereferenceable(8) ptr @_ZNK6vectorIP4exprLb0EjE3getEjRKS1_(ptr noundef nonnull align 8 dereferenceable(8) %0, i32 noundef %1, ptr noundef nonnull align 8 dereferenceable(8) %2) #5 comdat align 2 {
  %4 = alloca ptr, align 8
  %5 = alloca ptr, align 8
  %6 = alloca i32, align 4
  %7 = alloca ptr, align 8
  store ptr %0, ptr %5, align 8, !tbaa !95
  store i32 %1, ptr %6, align 4, !tbaa !74
  store ptr %2, ptr %7, align 8, !tbaa !173
  %8 = load ptr, ptr %5, align 8
  %9 = load i32, ptr %6, align 4, !tbaa !74
  %10 = call noundef i32 @_ZNK6vectorIP4exprLb0EjE4sizeEv(ptr noundef nonnull align 8 dereferenceable(8) %8)
  %11 = icmp uge i32 %9, %10
  br i1 %11, label %12, label %14

12:                                               ; preds = %3
  %13 = load ptr, ptr %7, align 8, !tbaa !173
  store ptr %13, ptr %4, align 8
  br label %20

14:                                               ; preds = %3
  %15 = getelementptr inbounds nuw %class.vector.2, ptr %8, i32 0, i32 0
  %16 = load ptr, ptr %15, align 8, !tbaa !195
  %17 = load i32, ptr %6, align 4, !tbaa !74
  %18 = zext i32 %17 to i64
  %19 = getelementptr inbounds nuw ptr, ptr %16, i64 %18
  store ptr %19, ptr %4, align 8
  br label %20

20:                                               ; preds = %14, %12
  %21 = load ptr, ptr %4, align 8
  ret ptr %21
}

; Function Attrs: mustprogress uwtable
define linkonce_odr hidden noundef ptr @_ZNK17scoped_ptr_vectorIN3sls6pluginEEixEj(ptr noundef nonnull align 8 dereferenceable(8) %0, i32 noundef %1) #4 comdat align 2 {
  %3 = alloca ptr, align 8
  %4 = alloca i32, align 4
  store ptr %0, ptr %3, align 8, !tbaa !55
  store i32 %1, ptr %4, align 4, !tbaa !74
  %5 = load ptr, ptr %3, align 8
  %6 = getelementptr inbounds nuw %class.scoped_ptr_vector, ptr %5, i32 0, i32 0
  %7 = load i32, ptr %4, align 4, !tbaa !74
  %8 = call noundef nonnull align 8 dereferenceable(8) ptr @_ZNK6vectorIPN3sls6pluginELb0EjEixEj(ptr noundef nonnull align 8 dereferenceable(8) %6, i32 noundef %7)
  %9 = load ptr, ptr %8, align 8, !tbaa !3
  ret ptr %9
}

; Function Attrs: mustprogress nounwind uwtable
define linkonce_odr hidden noundef i32 @_ZNK6vectorIPN3sls6pluginELb0EjE4sizeEv(ptr noundef nonnull align 8 dereferenceable(8) %0) #5 comdat align 2 {
  %2 = alloca i32, align 4
  %3 = alloca ptr, align 8
  store ptr %0, ptr %3, align 8, !tbaa !322
  %4 = load ptr, ptr %3, align 8
  %5 = getelementptr inbounds nuw %class.vector, ptr %4, i32 0, i32 0
  %6 = load ptr, ptr %5, align 8, !tbaa !324
  %7 = icmp eq ptr %6, null
  br i1 %7, label %8, label %9

8:                                                ; preds = %1
  store i32 0, ptr %2, align 4
  br label %14

9:                                                ; preds = %1
  %10 = getelementptr inbounds nuw %class.vector, ptr %4, i32 0, i32 0
  %11 = load ptr, ptr %10, align 8, !tbaa !324
  %12 = getelementptr inbounds i32, ptr %11, i64 -1
  %13 = load i32, ptr %12, align 4, !tbaa !74
  store i32 %13, ptr %2, align 4
  br label %14

14:                                               ; preds = %9, %8
  %15 = load i32, ptr %2, align 4
  ret i32 %15
}

; Function Attrs: mustprogress uwtable
define linkonce_odr hidden noundef ptr @_ZNK15ref_vector_coreI4expr19ref_manager_wrapperIS0_11ast_managerEE3getEjPS0_(ptr noundef nonnull align 8 dereferenceable(16) %0, i32 noundef %1, ptr noundef %2) #4 comdat align 2 {
  %4 = alloca ptr, align 8
  %5 = alloca i32, align 4
  %6 = alloca ptr, align 8
  store ptr %0, ptr %4, align 8, !tbaa !93
  store i32 %1, ptr %5, align 4, !tbaa !74
  store ptr %2, ptr %6, align 8, !tbaa !143
  %7 = load ptr, ptr %4, align 8
  %8 = getelementptr inbounds nuw %class.ref_vector_core, ptr %7, i32 0, i32 1
  %9 = load i32, ptr %5, align 4, !tbaa !74
  %10 = call noundef nonnull align 8 dereferenceable(8) ptr @_ZNK6vectorIP4exprLb0EjE3getEjRKS1_(ptr noundef nonnull align 8 dereferenceable(8) %8, i32 noundef %9, ptr noundef nonnull align 8 dereferenceable(8) %6)
  %11 = load ptr, ptr %10, align 8, !tbaa !143
  ret ptr %11
}

; Function Attrs: mustprogress uwtable
define linkonce_odr hidden noundef ptr @_ZNK17scoped_ptr_vectorIN3sls6pluginEE3getEjPS1_(ptr noundef nonnull align 8 dereferenceable(8) %0, i32 noundef %1, ptr noundef %2) #4 comdat align 2 {
  %4 = alloca ptr, align 8
  %5 = alloca i32, align 4
  %6 = alloca ptr, align 8
  store ptr %0, ptr %4, align 8, !tbaa !55
  store i32 %1, ptr %5, align 4, !tbaa !74
  store ptr %2, ptr %6, align 8, !tbaa !3
  %7 = load ptr, ptr %4, align 8
  %8 = load i32, ptr %5, align 4, !tbaa !74
  %9 = icmp ule i32 0, %8
  br i1 %9, label %10, label %18

10:                                               ; preds = %3
  %11 = load i32, ptr %5, align 4, !tbaa !74
  %12 = getelementptr inbounds nuw %class.scoped_ptr_vector, ptr %7, i32 0, i32 0
  %13 = call noundef i32 @_ZNK6vectorIPN3sls6pluginELb0EjE4sizeEv(ptr noundef nonnull align 8 dereferenceable(8) %12)
  %14 = icmp ult i32 %11, %13
  br i1 %14, label %15, label %18

15:                                               ; preds = %10
  %16 = load i32, ptr %5, align 4, !tbaa !74
  %17 = call noundef ptr @_ZNK17scoped_ptr_vectorIN3sls6pluginEEixEj(ptr noundef nonnull align 8 dereferenceable(8) %7, i32 noundef %16)
  br label %20

18:                                               ; preds = %10, %3
  %19 = load ptr, ptr %6, align 8, !tbaa !3
  br label %20

20:                                               ; preds = %18, %15
  %21 = phi ptr [ %17, %15 ], [ %19, %18 ]
  ret ptr %21
}

; Function Attrs: mustprogress uwtable
define linkonce_odr hidden noundef ptr @_ZN3sls7context4atomEj(ptr noundef nonnull align 8 dereferenceable(321) %0, i32 noundef %1) #4 comdat align 2 {
  %3 = alloca ptr, align 8
  %4 = alloca i32, align 4
  store ptr %0, ptr %3, align 8, !tbaa !8
  store i32 %1, ptr %4, align 4, !tbaa !74
  %5 = load ptr, ptr %3, align 8
  %6 = getelementptr inbounds nuw %"class.sls::context", ptr %5, i32 0, i32 5
  %7 = load i32, ptr %4, align 4, !tbaa !74
  %8 = call noundef ptr @_ZNK15ref_vector_coreI4expr19ref_manager_wrapperIS0_11ast_managerEE3getEjPS0_(ptr noundef nonnull align 8 dereferenceable(16) %6, i32 noundef %7, ptr noundef null)
  ret ptr %8
}

; Function Attrs: mustprogress uwtable
define hidden noundef zeroext i1 @_ZN3sls7context11is_externalEj(ptr noundef nonnull align 8 dereferenceable(321) %0, i32 noundef %1) #4 align 2 {
  %3 = alloca i1, align 1
  %4 = alloca ptr, align 8
  %5 = alloca i32, align 4
  %6 = alloca ptr, align 8
  %7 = alloca i32, align 4
  %8 = alloca i32, align 4
  %9 = alloca ptr, align 8
  store ptr %0, ptr %4, align 8, !tbaa !8
  store i32 %1, ptr %5, align 4, !tbaa !74
  %10 = load ptr, ptr %4, align 8
  call void @llvm.lifetime.start.p0(i64 8, ptr %6) #3
  %11 = load i32, ptr %5, align 4, !tbaa !74
  %12 = call noundef ptr @_ZN3sls7context4atomEj(ptr noundef nonnull align 8 dereferenceable(321) %10, i32 noundef %11)
  store ptr %12, ptr %6, align 8, !tbaa !143
  %13 = load ptr, ptr %6, align 8, !tbaa !143
  %14 = icmp ne ptr %13, null
  br i1 %14, label %16, label %15

15:                                               ; preds = %2
  store i1 false, ptr %3, align 1
  store i32 1, ptr %7, align 4
  br label %29

16:                                               ; preds = %2
  call void @llvm.lifetime.start.p0(i64 4, ptr %8) #3
  %17 = load ptr, ptr %6, align 8, !tbaa !143
  %18 = call noundef i32 @_ZNK3sls7context7get_fidEP4expr(ptr noundef nonnull align 8 dereferenceable(321) %10, ptr noundef %17)
  store i32 %18, ptr %8, align 4, !tbaa !74
  %19 = load i32, ptr %8, align 4, !tbaa !74
  %20 = icmp eq i32 %19, 0
  br i1 %20, label %21, label %22

21:                                               ; preds = %16
  store i1 false, ptr %3, align 1
  store i32 1, ptr %7, align 4
  br label %28

22:                                               ; preds = %16
  call void @llvm.lifetime.start.p0(i64 8, ptr %9) #3
  %23 = getelementptr inbounds nuw %"class.sls::context", ptr %10, i32 0, i32 2
  %24 = load i32, ptr %8, align 4, !tbaa !74
  %25 = call noundef ptr @_ZNK17scoped_ptr_vectorIN3sls6pluginEE3getEjPS1_(ptr noundef nonnull align 8 dereferenceable(8) %23, i32 noundef %24, ptr noundef null)
  store ptr %25, ptr %9, align 8, !tbaa !3
  %26 = load ptr, ptr %9, align 8, !tbaa !3
  %27 = icmp ne ptr %26, null
  store i1 %27, ptr %3, align 1
  store i32 1, ptr %7, align 4
  call void @llvm.lifetime.end.p0(i64 8, ptr %9) #3
  br label %28

28:                                               ; preds = %22, %21
  call void @llvm.lifetime.end.p0(i64 4, ptr %8) #3
  br label %29

29:                                               ; preds = %28, %15
  call void @llvm.lifetime.end.p0(i64 8, ptr %6) #3
  %30 = load i1, ptr %3, align 1
  ret i1 %30
}