; Function Attrs: mustprogress uwtable
define hidden noundef zeroext i1 @_ZN3sls7context11is_externalEj(ptr noundef nonnull readonly align 8 captures(none) dereferenceable(321) %0, i32 noundef %1) local_unnamed_addr #4 align 2 {
  %3 = getelementptr inbounds nuw i8, ptr %0, i64 80
  %4 = load ptr, ptr %3, align 8, !tbaa !51
  %5 = icmp eq ptr %4, null
  br i1 %5, label %_ZN3sls7context4atomEj.exit.thread, label %_ZNK6vectorIP4exprLb0EjE3getEjRKS1_.exit.i.i

_ZNK6vectorIP4exprLb0EjE3getEjRKS1_.exit.i.i:     ; preds = %2
  %6 = getelementptr inbounds i8, ptr %4, i64 -4
  %7 = load i32, ptr %6, align 4, !tbaa !58
  %.not.i.i.i = icmp ult i32 %1, %7
  br i1 %.not.i.i.i, label %_ZN3sls7context4atomEj.exit, label %_ZN3sls7context4atomEj.exit.thread

_ZN3sls7context4atomEj.exit:                      ; preds = %_ZNK6vectorIP4exprLb0EjE3getEjRKS1_.exit.i.i
  %8 = zext i32 %1 to i64
  %9 = getelementptr inbounds nuw ptr, ptr %4, i64 %8
  %.then.val.i.i = load ptr, ptr %9, align 8, !tbaa !61
  %.not = icmp eq ptr %.then.val.i.i, null
  br i1 %.not, label %_ZN3sls7context4atomEj.exit.thread, label %10

10:                                               ; preds = %_ZN3sls7context4atomEj.exit
  %11 = tail call noundef i32 @_ZNK3sls7context7get_fidEP4expr(ptr noundef nonnull align 8 dereferenceable(321) %0, ptr noundef nonnull %.then.val.i.i)
  %12 = icmp eq i32 %11, 0
  br i1 %12, label %_ZN3sls7context4atomEj.exit.thread, label %13

13:                                               ; preds = %10
  %14 = getelementptr inbounds nuw i8, ptr %0, i64 16
  %15 = load ptr, ptr %14, align 8, !tbaa !49
  %16 = icmp eq ptr %15, null
  br i1 %16, label %_ZN3sls7context4atomEj.exit.thread, label %_ZNK6vectorIPN3sls6pluginELb0EjE4sizeEv.exit.i

_ZNK6vectorIPN3sls6pluginELb0EjE4sizeEv.exit.i:   ; preds = %13
  %17 = getelementptr inbounds i8, ptr %15, i64 -4
  %18 = load i32, ptr %17, align 4, !tbaa !58
  %19 = icmp ult i32 %11, %18
  br i1 %19, label %20, label %_ZN3sls7context4atomEj.exit.thread

20:                                               ; preds = %_ZNK6vectorIPN3sls6pluginELb0EjE4sizeEv.exit.i
  %21 = zext i32 %11 to i64
  %22 = getelementptr inbounds nuw ptr, ptr %15, i64 %21
  %23 = load ptr, ptr %22, align 8, !tbaa !70
  %24 = icmp ne ptr %23, null
  br label %_ZN3sls7context4atomEj.exit.thread

_ZN3sls7context4atomEj.exit.thread:               ; preds = %20, %_ZNK6vectorIPN3sls6pluginELb0EjE4sizeEv.exit.i, %13, %2, %_ZNK6vectorIP4exprLb0EjE3getEjRKS1_.exit.i.i, %10, %_ZN3sls7context4atomEj.exit
  %.0 = phi i1 [ false, %_ZN3sls7context4atomEj.exit ], [ false, %10 ], [ false, %_ZNK6vectorIP4exprLb0EjE3getEjRKS1_.exit.i.i ], [ false, %2 ], [ %24, %20 ], [ false, %_ZNK6vectorIPN3sls6pluginELb0EjE4sizeEv.exit.i ], [ false, %13 ]
  ret i1 %.0
}